; Function Attrs: nounwind sspstrong uwtable
define dso_local void @tcg_tb_insert(ptr noundef %0) local_unnamed_addr #1 {
  %2 = getelementptr inbounds nuw i8, ptr %0, i64 32
  %3 = load ptr, ptr %2, align 8
  %4 = load ptr, ptr getelementptr inbounds nuw (i8, ptr @region, i64 48), align 8
  %5 = ptrtoint ptr %3 to i64
  %6 = ptrtoint ptr %4 to i64
  %7 = sub i64 %5, %6
  %8 = load i64, ptr getelementptr inbounds nuw (i8, ptr @region, i64 88), align 8
  %.not.i = icmp ugt i64 %7, %8
  br i1 %.not.i, label %9, label %15

9:                                                ; preds = %1
  %10 = load i64, ptr @tcg_splitwx_diff, align 8
  %11 = sub i64 0, %10
  %12 = getelementptr inbounds i8, ptr %3, i64 %11
  %13 = ptrtoint ptr %12 to i64
  %14 = sub i64 %13, %6
  %.not12.i = icmp ugt i64 %14, %8
  br i1 %.not12.i, label %tc_ptr_to_region_tree.exit.thread, label %15

15:                                               ; preds = %9, %1
  %.09.i = phi ptr [ %3, %1 ], [ %12, %9 ]
  %16 = icmp ult ptr %.09.i, %4
  br i1 %16, label %tc_ptr_to_region_tree.exit, label %17

17:                                               ; preds = %15
  %18 = ptrtoint ptr %.09.i to i64
  %19 = sub i64 %18, %6
  %20 = load i64, ptr getelementptr inbounds nuw (i8, ptr @region, i64 80), align 8
  %21 = load i64, ptr getelementptr inbounds nuw (i8, ptr @region, i64 64), align 8
  %22 = add i64 %21, -1
  %23 = mul i64 %22, %20
  %24 = icmp ugt i64 %19, %23
  br i1 %24, label %tc_ptr_to_region_tree.exit, label %25

25:                                               ; preds = %17
  %26 = udiv i64 %19, %20
  br label %tc_ptr_to_region_tree.exit

tc_ptr_to_region_tree.exit:                       ; preds = %15, %17, %25
  %.08.i = phi i64 [ 0, %15 ], [ %26, %25 ], [ %22, %17 ]
  %27 = load ptr, ptr @region_trees, align 8
  %.not = icmp eq ptr %27, null
  br i1 %.not, label %tc_ptr_to_region_tree.exit.thread, label %28, !prof !4

tc_ptr_to_region_tree.exit.thread:                ; preds = %9, %tc_ptr_to_region_tree.exit
  tail call void @g_assertion_message_expr(ptr noundef null, ptr noundef nonnull @.str, i32 noundef 227, ptr noundef nonnull @__func__.tcg_tb_insert, ptr noundef nonnull @.str.1) #11
  unreachable

28:                                               ; preds = %tc_ptr_to_region_tree.exit
  %29 = load i64, ptr @tree_size, align 8
  %30 = mul i64 %29, %.08.i
  %31 = getelementptr inbounds nuw i8, ptr %27, i64 %30
  %32 = load atomic i64, ptr @qemu_mutex_lock_func monotonic, align 8
  %33 = inttoptr i64 %32 to ptr
  tail call void %33(ptr noundef nonnull %31, ptr noundef nonnull @.str, i32 noundef 228) #12
  %34 = getelementptr inbounds nuw i8, ptr %31, i64 48
  %35 = load ptr, ptr %34, align 8
  tail call void @q_tree_insert(ptr noundef %35, ptr noundef nonnull %2, ptr noundef nonnull %0) #12
  tail call void @qemu_mutex_unlock_impl(ptr noundef nonnull %31, ptr noundef nonnull @.str, i32 noundef 230) #12
  ret void
}